; Function Attrs: null_pointer_is_valid sspstrong uwtable
define internal i32 @dissect_kpasswd_tcp(ptr noundef %0, ptr noundef %1, ptr noundef %2, ptr noundef %3) #0 {
  %5 = getelementptr inbounds nuw i8, ptr %1, i64 8
  %6 = load ptr, ptr %5, align 8
  tail call void @col_set_str(ptr noundef %6, i32 noundef 35, ptr noundef nonnull @.str.42)
  %7 = load ptr, ptr %5, align 8
  tail call void @col_clear(ptr noundef %7, i32 noundef 25)
  %8 = load i8, ptr @kpasswd_desegment, align 1, !range !6, !noundef !7
  %9 = trunc nuw i8 %8 to i1
  tail call void @tcp_dissect_pdus(ptr noundef %0, ptr noundef %1, ptr noundef %2, i1 noundef zeroext %9, i32 noundef 4, ptr noundef nonnull @get_krb_pdu_len, ptr noundef nonnull @dissect_kpasswd_tcp_pdu, ptr noundef %3)
  %10 = tail call i32 @tvb_captured_length(ptr noundef %0)
  ret i32 %10
}